target datalayout = "e-m:e-p270:32:32-p271:32:32-p272:64:64-i64:64-i128:128-f80:128-n8:16:32:64-S128"
target triple = "x86_64-pc-linux-gnu"

%"struct.llvm::pdb::GSIHashStreamBuilder" = type { i32, %"class.std::vector", %"struct.std::array", %"class.std::vector.0" }
%"class.std::vector" = type { %"struct.std::_Vector_base" }
%"struct.std::_Vector_base" = type { %"struct.std::_Vector_base<llvm::pdb::PSHashRecord, std::allocator<llvm::pdb::PSHashRecord>>::_Vector_impl" }
%"struct.std::_Vector_base<llvm::pdb::PSHashRecord, std::allocator<llvm::pdb::PSHashRecord>>::_Vector_impl" = type { %"struct.std::_Vector_base<llvm::pdb::PSHashRecord, std::allocator<llvm::pdb::PSHashRecord>>::_Vector_impl_data" }
%"struct.std::_Vector_base<llvm::pdb::PSHashRecord, std::allocator<llvm::pdb::PSHashRecord>>::_Vector_impl_data" = type { ptr, ptr, ptr }
%"struct.std::array" = type { [129 x %"struct.llvm::support::detail::packed_endian_specific_integral"] }
%"struct.llvm::support::detail::packed_endian_specific_integral" = type { %struct.anon }
%struct.anon = type { [4 x i8] }
%"class.std::vector.0" = type { %"struct.std::_Vector_base.1" }
%"struct.std::_Vector_base.1" = type { %"struct.std::_Vector_base<llvm::support::detail::packed_endian_specific_integral<unsigned int, llvm::endianness::little, 1>, std::allocator<llvm::support::detail::packed_endian_specific_integral<unsigned int, llvm::endianness::little, 1>>>::_Vector_impl" }
%"struct.std::_Vector_base<llvm::support::detail::packed_endian_specific_integral<unsigned int, llvm::endianness::little, 1>, std::allocator<llvm::support::detail::packed_endian_specific_integral<unsigned int, llvm::endianness::little, 1>>>::_Vector_impl" = type { %"struct.std::_Vector_base<llvm::support::detail::packed_endian_specific_integral<unsigned int, llvm::endianness::little, 1>, std::allocator<llvm::support::detail::packed_endian_specific_integral<unsigned int, llvm::endianness::little, 1>>>::_Vector_impl_data" }
%"struct.std::_Vector_base<llvm::support::detail::packed_endian_specific_integral<unsigned int, llvm::endianness::little, 1>, std::allocator<llvm::support::detail::packed_endian_specific_integral<unsigned int, llvm::endianness::little, 1>>>::_Vector_impl_data" = type { ptr, ptr, ptr }
%"class.llvm::pdb::GSIStreamBuilder" = type { i32, i32, i32, ptr, %"class.std::unique_ptr", %"class.std::unique_ptr", %"class.std::vector.8", %"class.std::vector.13", %"class.llvm::DenseSet" }
%"class.std::unique_ptr" = type { %"struct.std::__uniq_ptr_data" }
%"struct.std::__uniq_ptr_data" = type { %"class.std::__uniq_ptr_impl" }
%"class.std::__uniq_ptr_impl" = type { %"class.std::tuple" }
%"class.std::tuple" = type { %"struct.std::_Tuple_impl" }
%"struct.std::_Tuple_impl" = type { %"struct.std::_Head_base.7" }
%"struct.std::_Head_base.7" = type { ptr }
%"class.std::vector.8" = type { %"struct.std::_Vector_base.9" }
%"struct.std::_Vector_base.9" = type { %"struct.std::_Vector_base<llvm::pdb::BulkPublic, std::allocator<llvm::pdb::BulkPublic>>::_Vector_impl" }
%"struct.std::_Vector_base<llvm::pdb::BulkPublic, std::allocator<llvm::pdb::BulkPublic>>::_Vector_impl" = type { %"struct.std::_Vector_base<llvm::pdb::BulkPublic, std::allocator<llvm::pdb::BulkPublic>>::_Vector_impl_data" }
%"struct.std::_Vector_base<llvm::pdb::BulkPublic, std::allocator<llvm::pdb::BulkPublic>>::_Vector_impl_data" = type { ptr, ptr, ptr }
%"class.std::vector.13" = type { %"struct.std::_Vector_base.14" }
%"struct.std::_Vector_base.14" = type { %"struct.std::_Vector_base<llvm::codeview::CVRecord<llvm::codeview::SymbolKind>, std::allocator<llvm::codeview::CVRecord<llvm::codeview::SymbolKind>>>::_Vector_impl" }
%"struct.std::_Vector_base<llvm::codeview::CVRecord<llvm::codeview::SymbolKind>, std::allocator<llvm::codeview::CVRecord<llvm::codeview::SymbolKind>>>::_Vector_impl" = type { %"struct.std::_Vector_base<llvm::codeview::CVRecord<llvm::codeview::SymbolKind>, std::allocator<llvm::codeview::CVRecord<llvm::codeview::SymbolKind>>>::_Vector_impl_data" }
%"struct.std::_Vector_base<llvm::codeview::CVRecord<llvm::codeview::SymbolKind>, std::allocator<llvm::codeview::CVRecord<llvm::codeview::SymbolKind>>>::_Vector_impl_data" = type { ptr, ptr, ptr }
%"class.llvm::DenseSet" = type { %"class.llvm::detail::DenseSetImpl" }
%"class.llvm::detail::DenseSetImpl" = type { %"class.llvm::DenseMap" }
%"class.llvm::DenseMap" = type <{ ptr, i32, i32, i32, [4 x i8] }>

; Function Attrs: mustprogress nounwind uwtable
define linkonce_odr hidden noundef nonnull align 8 dereferenceable(8) ptr @_ZNSt10_Head_baseILm0EPN4llvm3pdb20GSIHashStreamBuilderELb0EE7_M_headERKS4_(ptr noundef nonnull align 8 dereferenceable(8) %0) #0 comdat align 2 {
  %2 = alloca ptr, align 8
  store ptr %0, ptr %2, align 8
  %3 = load ptr, ptr %2, align 8
  %4 = getelementptr inbounds nuw %"struct.std::_Head_base.7", ptr %3, i32 0, i32 0
  ret ptr %4
}

; Function Attrs: mustprogress nounwind uwtable
define linkonce_odr hidden noundef nonnull align 8 dereferenceable(8) ptr @_ZNSt11_Tuple_implILm0EJPN4llvm3pdb20GSIHashStreamBuilderESt14default_deleteIS2_EEE7_M_headERKS6_(ptr noundef nonnull align 8 dereferenceable(8) %0) #0 comdat align 2 {
  %2 = alloca ptr, align 8
  store ptr %0, ptr %2, align 8
  %3 = load ptr, ptr %2, align 8
  %4 = call noundef nonnull align 8 dereferenceable(8) ptr @_ZNSt10_Head_baseILm0EPN4llvm3pdb20GSIHashStreamBuilderELb0EE7_M_headERKS4_(ptr noundef nonnull align 8 dereferenceable(8) %3) #5
  ret ptr %4
}

; Function Attrs: mustprogress nounwind uwtable
define linkonce_odr noundef nonnull align 8 dereferenceable(8) ptr @_ZSt12__get_helperILm0EPN4llvm3pdb20GSIHashStreamBuilderEJSt14default_deleteIS2_EEERKT0_RKSt11_Tuple_implIXT_EJS6_DpT1_EE(ptr noundef nonnull align 8 dereferenceable(8) %0) #0 comdat {
  %2 = alloca ptr, align 8
  store ptr %0, ptr %2, align 8
  %3 = load ptr, ptr %2, align 8
  %4 = call noundef nonnull align 8 dereferenceable(8) ptr @_ZNSt11_Tuple_implILm0EJPN4llvm3pdb20GSIHashStreamBuilderESt14default_deleteIS2_EEE7_M_headERKS6_(ptr noundef nonnull align 8 dereferenceable(8) %3) #5
  ret ptr %4
}

; Function Attrs: mustprogress nounwind uwtable
define linkonce_odr noundef nonnull align 8 dereferenceable(8) ptr @_ZSt3getILm0EJPN4llvm3pdb20GSIHashStreamBuilderESt14default_deleteIS2_EEERKNSt13tuple_elementIXT_ESt5tupleIJDpT0_EEE4typeERKSA_(ptr noundef nonnull align 8 dereferenceable(8) %0) #0 comdat {
  %2 = alloca ptr, align 8
  store ptr %0, ptr %2, align 8
  %3 = load ptr, ptr %2, align 8
  %4 = call noundef nonnull align 8 dereferenceable(8) ptr @_ZSt12__get_helperILm0EPN4llvm3pdb20GSIHashStreamBuilderEJSt14default_deleteIS2_EEERKT0_RKSt11_Tuple_implIXT_EJS6_DpT1_EE(ptr noundef nonnull align 8 dereferenceable(8) %3) #5
  ret ptr %4
}

; Function Attrs: mustprogress nounwind uwtable
define linkonce_odr hidden noundef ptr @_ZNKSt15__uniq_ptr_implIN4llvm3pdb20GSIHashStreamBuilderESt14default_deleteIS2_EE6_M_ptrEv(ptr noundef nonnull align 8 dereferenceable(8) %0) #0 comdat align 2 {
  %2 = alloca ptr, align 8
  store ptr %0, ptr %2, align 8
  %3 = load ptr, ptr %2, align 8
  %4 = getelementptr inbounds nuw %"class.std::__uniq_ptr_impl", ptr %3, i32 0, i32 0
  %5 = call noundef nonnull align 8 dereferenceable(8) ptr @_ZSt3getILm0EJPN4llvm3pdb20GSIHashStreamBuilderESt14default_deleteIS2_EEERKNSt13tuple_elementIXT_ESt5tupleIJDpT0_EEE4typeERKSA_(ptr noundef nonnull align 8 dereferenceable(8) %4) #5
  %6 = load ptr, ptr %5, align 8
  ret ptr %6
}

; Function Attrs: mustprogress nounwind uwtable
define linkonce_odr hidden noundef i64 @_ZNKSt6vectorIN4llvm7support6detail31packed_endian_specific_integralIjLNS0_10endiannessE1ELm1ELm1EEESaIS5_EE4sizeEv(ptr noundef nonnull align 8 dereferenceable(24) %0) #0 comdat align 2 {
  %2 = alloca ptr, align 8
  store ptr %0, ptr %2, align 8
  %3 = load ptr, ptr %2, align 8
  %4 = getelementptr inbounds nuw %"struct.std::_Vector_base.1", ptr %3, i32 0, i32 0
  %5 = getelementptr inbounds nuw %"struct.std::_Vector_base<llvm::support::detail::packed_endian_specific_integral<unsigned int, llvm::endianness::little, 1>, std::allocator<llvm::support::detail::packed_endian_specific_integral<unsigned int, llvm::endianness::little, 1>>>::_Vector_impl_data", ptr %4, i32 0, i32 1
  %6 = load ptr, ptr %5, align 8
  %7 = getelementptr inbounds nuw %"struct.std::_Vector_base.1", ptr %3, i32 0, i32 0
  %8 = getelementptr inbounds nuw %"struct.std::_Vector_base<llvm::support::detail::packed_endian_specific_integral<unsigned int, llvm::endianness::little, 1>, std::allocator<llvm::support::detail::packed_endian_specific_integral<unsigned int, llvm::endianness::little, 1>>>::_Vector_impl_data", ptr %7, i32 0, i32 0
  %9 = load ptr, ptr %8, align 8
  %10 = ptrtoint ptr %6 to i64
  %11 = ptrtoint ptr %9 to i64
  %12 = sub i64 %10, %11
  %13 = sdiv exact i64 %12, 4
  ret i64 %13
}

; Function Attrs: mustprogress nounwind willreturn memory(none) uwtable
define linkonce_odr hidden noundef i64 @_ZNKSt5arrayIN4llvm7support6detail31packed_endian_specific_integralIjLNS0_10endiannessE1ELm1ELm1EEELm129EE4sizeEv(ptr noundef nonnull align 1 dereferenceable(516) %0) #1 comdat align 2 {
  %2 = alloca ptr, align 8
  store ptr %0, ptr %2, align 8
  ret i64 129
}

; Function Attrs: mustprogress nounwind uwtable
define linkonce_odr hidden noundef i64 @_ZNKSt6vectorIN4llvm3pdb12PSHashRecordESaIS2_EE4sizeEv(ptr noundef nonnull align 8 dereferenceable(24) %0) #0 comdat align 2 {
  %2 = alloca ptr, align 8
  store ptr %0, ptr %2, align 8
  %3 = load ptr, ptr %2, align 8
  %4 = getelementptr inbounds nuw %"struct.std::_Vector_base", ptr %3, i32 0, i32 0
  %5 = getelementptr inbounds nuw %"struct.std::_Vector_base<llvm::pdb::PSHashRecord, std::allocator<llvm::pdb::PSHashRecord>>::_Vector_impl_data", ptr %4, i32 0, i32 1
  %6 = load ptr, ptr %5, align 8
  %7 = getelementptr inbounds nuw %"struct.std::_Vector_base", ptr %3, i32 0, i32 0
  %8 = getelementptr inbounds nuw %"struct.std::_Vector_base<llvm::pdb::PSHashRecord, std::allocator<llvm::pdb::PSHashRecord>>::_Vector_impl_data", ptr %7, i32 0, i32 0
  %9 = load ptr, ptr %8, align 8
  %10 = ptrtoint ptr %6 to i64
  %11 = ptrtoint ptr %9 to i64
  %12 = sub i64 %10, %11
  %13 = sdiv exact i64 %12, 8
  ret i64 %13
}

; Function Attrs: mustprogress nounwind uwtable
define linkonce_odr hidden noundef ptr @_ZNKSt10unique_ptrIN4llvm3pdb20GSIHashStreamBuilderESt14default_deleteIS2_EE3getEv(ptr noundef nonnull align 8 dereferenceable(8) %0) #0 comdat align 2 {
  %2 = alloca ptr, align 8
  store ptr %0, ptr %2, align 8
  %3 = load ptr, ptr %2, align 8
  %4 = getelementptr inbounds nuw %"class.std::unique_ptr", ptr %3, i32 0, i32 0
  %5 = call noundef ptr @_ZNKSt15__uniq_ptr_implIN4llvm3pdb20GSIHashStreamBuilderESt14default_deleteIS2_EE6_M_ptrEv(ptr noundef nonnull align 8 dereferenceable(8) %4) #5
  ret ptr %5
}

; Function Attrs: mustprogress nounwind uwtable
define dso_local noundef i32 @_ZNK4llvm3pdb20GSIHashStreamBuilder25calculateSerializedLengthEv(ptr noundef nonnull align 8 dereferenceable(576) %0) #0 align 2 {
  %2 = alloca ptr, align 8
  %3 = alloca i32, align 4
  store ptr %0, ptr %2, align 8
  %4 = load ptr, ptr %2, align 8
  store i32 16, ptr %3, align 4
  %5 = getelementptr inbounds nuw %"struct.llvm::pdb::GSIHashStreamBuilder", ptr %4, i32 0, i32 1
  %6 = call noundef i64 @_ZNKSt6vectorIN4llvm3pdb12PSHashRecordESaIS2_EE4sizeEv(ptr noundef nonnull align 8 dereferenceable(24) %5) #5
  %7 = mul i64 %6, 8
  %8 = load i32, ptr %3, align 4
  %9 = zext i32 %8 to i64
  %10 = add i64 %9, %7
  %11 = trunc i64 %10 to i32
  store i32 %11, ptr %3, align 4
  %12 = getelementptr inbounds nuw %"struct.llvm::pdb::GSIHashStreamBuilder", ptr %4, i32 0, i32 2
  %13 = call noundef i64 @_ZNKSt5arrayIN4llvm7support6detail31packed_endian_specific_integralIjLNS0_10endiannessE1ELm1ELm1EEELm129EE4sizeEv(ptr noundef nonnull align 1 dereferenceable(516) %12) #14
  %14 = mul i64 %13, 4
  %15 = load i32, ptr %3, align 4
  %16 = zext i32 %15 to i64
  %17 = add i64 %16, %14
  %18 = trunc i64 %17 to i32
  store i32 %18, ptr %3, align 4
  %19 = getelementptr inbounds nuw %"struct.llvm::pdb::GSIHashStreamBuilder", ptr %4, i32 0, i32 3
  %20 = call noundef i64 @_ZNKSt6vectorIN4llvm7support6detail31packed_endian_specific_integralIjLNS0_10endiannessE1ELm1ELm1EEESaIS5_EE4sizeEv(ptr noundef nonnull align 8 dereferenceable(24) %19) #5
  %21 = mul i64 %20, 4
  %22 = load i32, ptr %3, align 4
  %23 = zext i32 %22 to i64
  %24 = add i64 %23, %21
  %25 = trunc i64 %24 to i32
  store i32 %25, ptr %3, align 4
  %26 = load i32, ptr %3, align 4
  ret i32 %26
}

; Function Attrs: mustprogress nounwind uwtable
define linkonce_odr hidden noundef ptr @_ZNKSt10unique_ptrIN4llvm3pdb20GSIHashStreamBuilderESt14default_deleteIS2_EEptEv(ptr noundef nonnull align 8 dereferenceable(8) %0) #0 comdat align 2 {
  %2 = alloca ptr, align 8
  store ptr %0, ptr %2, align 8
  %3 = load ptr, ptr %2, align 8
  %4 = call noundef ptr @_ZNKSt10unique_ptrIN4llvm3pdb20GSIHashStreamBuilderESt14default_deleteIS2_EE3getEv(ptr noundef nonnull align 8 dereferenceable(8) %3) #5
  ret ptr %4
}

; Function Attrs: mustprogress nounwind uwtable
define dso_local noundef i32 @_ZNK4llvm3pdb16GSIStreamBuilder30calculateGlobalsHashStreamSizeEv(ptr noundef nonnull align 8 dereferenceable(112) %0) #0 align 2 {
  %2 = alloca ptr, align 8
  store ptr %0, ptr %2, align 8
  %3 = load ptr, ptr %2, align 8
  %4 = getelementptr inbounds nuw %"class.llvm::pdb::GSIStreamBuilder", ptr %3, i32 0, i32 5
  %5 = call noundef ptr @_ZNKSt10unique_ptrIN4llvm3pdb20GSIHashStreamBuilderESt14default_deleteIS2_EEptEv(ptr noundef nonnull align 8 dereferenceable(8) %4) #5
  %6 = call noundef i32 @_ZNK4llvm3pdb20GSIHashStreamBuilder25calculateSerializedLengthEv(ptr noundef nonnull align 8 dereferenceable(576) %5)
  ret i32 %6
}