; Function Attrs: mustprogress nofree norecurse nosync nounwind willreturn memory(read, inaccessiblemem: none) uwtable
define dso_local noundef i32 @_ZNK4llvm3pdb16GSIStreamBuilder30calculateGlobalsHashStreamSizeEv(ptr noundef nonnull readonly align 8 captures(none) dereferenceable(112) %0) local_unnamed_addr #5 align 2 {
  %2 = getelementptr inbounds nuw i8, ptr %0, i64 32
  %3 = load ptr, ptr %2, align 8
  %4 = getelementptr inbounds nuw i8, ptr %3, i64 8
  %5 = getelementptr inbounds nuw i8, ptr %3, i64 16
  %6 = load ptr, ptr %5, align 8
  %7 = load ptr, ptr %4, align 8
  %8 = ptrtoint ptr %6 to i64
  %9 = ptrtoint ptr %7 to i64
  %10 = getelementptr inbounds nuw i8, ptr %3, i64 552
  %11 = getelementptr inbounds nuw i8, ptr %3, i64 560
  %12 = load ptr, ptr %11, align 8
  %13 = load ptr, ptr %10, align 8
  %14 = ptrtoint ptr %12 to i64
  %15 = ptrtoint ptr %13 to i64
  %16 = add i64 %8, %14
  %17 = add i64 %9, %15
  %18 = sub i64 %16, %17
  %19 = trunc i64 %18 to i32
  %20 = add i32 %19, 532
  ret i32 %20
}